target datalayout = "e-m:e-p270:32:32-p271:32:32-p272:64:64-i64:64-i128:128-f80:128-n8:16:32:64-S128"
target triple = "x86_64-unknown-linux-gnu"

%class.grobner = type <{ %struct.grobner_stats, ptr, ptr, %class.arith_util, %class.obj_map, %"struct.grobner::var_lt", %"struct.grobner::monomial_lt", %class.obj_hashtable, %class.obj_hashtable, %class.ptr_vector, %class.ptr_vector, i8, [7 x i8], ptr, %class.svector, %class.ptr_vector.3, %class.ptr_vector.3, %class.ptr_vector.5, %class.ptr_vector.5, i32, [4 x i8] }>
%struct.grobner_stats = type { i64, i64, i64, i64 }
%class.arith_util = type { ptr, ptr }
%class.obj_map = type { %class.core_hashtable }
%class.core_hashtable = type <{ ptr, i32, i32, i32, [4 x i8] }>
%"struct.grobner::var_lt" = type { ptr }
%"struct.grobner::monomial_lt" = type { ptr }
%class.obj_hashtable = type { %class.core_hashtable.base.1, [4 x i8] }
%class.core_hashtable.base.1 = type <{ ptr, i32, i32, i32 }>
%class.ptr_vector = type { %class.vector }
%class.vector = type { ptr }
%class.svector = type { %class.vector.2 }
%class.vector.2 = type { ptr }
%class.ptr_vector.3 = type { %class.vector.4 }
%class.vector.4 = type { ptr }
%class.ptr_vector.5 = type { %class.vector.6 }
%class.vector.6 = type { ptr }
%"struct.grobner::scope" = type { i32, i32 }

; Function Attrs: mustprogress nounwind uwtable
define linkonce_odr hidden noundef i32 @_ZNK6vectorIPN7grobner8equationELb0EjE4sizeEv(ptr noundef nonnull align 8 dereferenceable(8) %this) #5 comdat align 2 {
entry:
  %retval = alloca i32, align 4
  %this.addr = alloca ptr, align 8
  store ptr %this, ptr %this.addr, align 8
  %this1 = load ptr, ptr %this.addr, align 8
  %m_data = getelementptr inbounds %class.vector, ptr %this1, i32 0, i32 0
  %0 = load ptr, ptr %m_data, align 8
  %cmp = icmp eq ptr %0, null
  br i1 %cmp, label %if.then, label %if.end

if.then:                                          ; preds = %entry
  store i32 0, ptr %retval, align 4
  br label %return

if.end:                                           ; preds = %entry
  %m_data2 = getelementptr inbounds %class.vector, ptr %this1, i32 0, i32 0
  %1 = load ptr, ptr %m_data2, align 8
  %arrayidx = getelementptr inbounds i32, ptr %1, i64 -1
  %2 = load i32, ptr %arrayidx, align 4
  store i32 %2, ptr %retval, align 4
  br label %return

return:                                           ; preds = %if.end, %if.then
  %3 = load i32, ptr %retval, align 4
  ret i32 %3
}

; Function Attrs: mustprogress nounwind uwtable
define linkonce_odr hidden void @_ZN6vectorIPN7grobner8equationELb0EjE6shrinkEj(ptr noundef nonnull align 8 dereferenceable(8) %this, i32 noundef %s) #5 comdat align 2 {
entry:
  %this.addr = alloca ptr, align 8
  %s.addr = alloca i32, align 4
  store ptr %this, ptr %this.addr, align 8
  store i32 %s, ptr %s.addr, align 4
  %this1 = load ptr, ptr %this.addr, align 8
  %m_data = getelementptr inbounds %class.vector, ptr %this1, i32 0, i32 0
  %0 = load ptr, ptr %m_data, align 8
  %tobool = icmp ne ptr %0, null
  br i1 %tobool, label %if.then, label %if.else

if.then:                                          ; preds = %entry
  %1 = load i32, ptr %s.addr, align 4
  %m_data2 = getelementptr inbounds %class.vector, ptr %this1, i32 0, i32 0
  %2 = load ptr, ptr %m_data2, align 8
  %arrayidx = getelementptr inbounds i32, ptr %2, i64 -1
  store i32 %1, ptr %arrayidx, align 4
  br label %if.end

if.else:                                          ; preds = %entry
  br label %if.end

if.end:                                           ; preds = %if.else, %if.then
  ret void
}

; Function Attrs: mustprogress uwtable
define linkonce_odr hidden void @_ZN14core_hashtableI14obj_hash_entryIN7grobner8equationEE12obj_ptr_hashIS2_E6ptr_eqIS2_EE6insertERKPS2_(ptr noundef nonnull align 8 dereferenceable(20) %this, ptr noundef nonnull align 8 dereferenceable(8) %e) #4 comdat align 2 {
entry:
  %this.addr = alloca ptr, align 8
  %e.addr = alloca ptr, align 8
  %tmp = alloca ptr, align 8
  store ptr %this, ptr %this.addr, align 8
  store ptr %e, ptr %e.addr, align 8
  %this1 = load ptr, ptr %this.addr, align 8
  %0 = load ptr, ptr %e.addr, align 8
  %1 = load ptr, ptr %0, align 8
  store ptr %1, ptr %tmp, align 8
  call void @_ZN14core_hashtableI14obj_hash_entryIN7grobner8equationEE12obj_ptr_hashIS2_E6ptr_eqIS2_EE6insertEOPS2_(ptr noundef nonnull align 8 dereferenceable(20) %this1, ptr noundef nonnull align 8 dereferenceable(8) %tmp)
  ret void
}

; Function Attrs: mustprogress uwtable
define linkonce_odr hidden noundef ptr @_ZN6vectorIPN7grobner8equationELb0EjE3endEv(ptr noundef nonnull align 8 dereferenceable(8) %this) #4 comdat align 2 {
entry:
  %this.addr = alloca ptr, align 8
  store ptr %this, ptr %this.addr, align 8
  %this1 = load ptr, ptr %this.addr, align 8
  %m_data = getelementptr inbounds %class.vector, ptr %this1, i32 0, i32 0
  %0 = load ptr, ptr %m_data, align 8
  %call = call noundef i32 @_ZNK6vectorIPN7grobner8equationELb0EjE4sizeEv(ptr noundef nonnull align 8 dereferenceable(8) %this1)
  %idx.ext = zext i32 %call to i64
  %add.ptr = getelementptr inbounds ptr, ptr %0, i64 %idx.ext
  ret ptr %add.ptr
}

; Function Attrs: mustprogress nounwind uwtable
define linkonce_odr hidden noundef ptr @_ZN6vectorIPN7grobner8equationELb0EjE5beginEv(ptr noundef nonnull align 8 dereferenceable(8) %this) #5 comdat align 2 {
entry:
  %this.addr = alloca ptr, align 8
  store ptr %this, ptr %this.addr, align 8
  %this1 = load ptr, ptr %this.addr, align 8
  %m_data = getelementptr inbounds %class.vector, ptr %this1, i32 0, i32 0
  %0 = load ptr, ptr %m_data, align 8
  ret ptr %0
}

; Function Attrs: mustprogress nounwind uwtable
define linkonce_odr hidden noundef i32 @_ZNK6vectorIN7grobner5scopeELb0EjE4sizeEv(ptr noundef nonnull align 8 dereferenceable(8) %this) #5 comdat align 2 {
entry:
  %retval = alloca i32, align 4
  %this.addr = alloca ptr, align 8
  store ptr %this, ptr %this.addr, align 8
  %this1 = load ptr, ptr %this.addr, align 8
  %m_data = getelementptr inbounds %class.vector.2, ptr %this1, i32 0, i32 0
  %0 = load ptr, ptr %m_data, align 8
  %cmp = icmp eq ptr %0, null
  br i1 %cmp, label %if.then, label %if.end

if.then:                                          ; preds = %entry
  store i32 0, ptr %retval, align 4
  br label %return

if.end:                                           ; preds = %entry
  %m_data2 = getelementptr inbounds %class.vector.2, ptr %this1, i32 0, i32 0
  %1 = load ptr, ptr %m_data2, align 8
  %arrayidx = getelementptr inbounds i32, ptr %1, i64 -1
  %2 = load i32, ptr %arrayidx, align 4
  store i32 %2, ptr %retval, align 4
  br label %return

return:                                           ; preds = %if.end, %if.then
  %3 = load i32, ptr %retval, align 4
  ret i32 %3
}

; Function Attrs: mustprogress nounwind uwtable
define linkonce_odr hidden void @_ZN6vectorIN7grobner5scopeELb0EjE6shrinkEj(ptr noundef nonnull align 8 dereferenceable(8) %this, i32 noundef %s) #5 comdat align 2 {
entry:
  %this.addr = alloca ptr, align 8
  %s.addr = alloca i32, align 4
  store ptr %this, ptr %this.addr, align 8
  store i32 %s, ptr %s.addr, align 4
  %this1 = load ptr, ptr %this.addr, align 8
  %m_data = getelementptr inbounds %class.vector.2, ptr %this1, i32 0, i32 0
  %0 = load ptr, ptr %m_data, align 8
  %tobool = icmp ne ptr %0, null
  br i1 %tobool, label %if.then, label %if.else

if.then:                                          ; preds = %entry
  %1 = load i32, ptr %s.addr, align 4
  %m_data2 = getelementptr inbounds %class.vector.2, ptr %this1, i32 0, i32 0
  %2 = load ptr, ptr %m_data2, align 8
  %arrayidx = getelementptr inbounds i32, ptr %2, i64 -1
  store i32 %1, ptr %arrayidx, align 4
  br label %if.end

if.else:                                          ; preds = %entry
  br label %if.end

if.end:                                           ; preds = %if.else, %if.then
  ret void
}

; Function Attrs: mustprogress uwtable
define hidden void @_ZN7grobner13del_equationsEj(ptr noundef nonnull align 8 dereferenceable(228) %this, i32 noundef %old_size) #4 align 2 {
entry:
  %this.addr = alloca ptr, align 8
  %old_size.addr = alloca i32, align 4
  %it = alloca ptr, align 8
  %end = alloca ptr, align 8
  %eq = alloca ptr, align 8
  store ptr %this, ptr %this.addr, align 8
  store i32 %old_size, ptr %old_size.addr, align 4
  %this1 = load ptr, ptr %this.addr, align 8
  %m_equations_to_delete = getelementptr inbounds %class.grobner, ptr %this1, i32 0, i32 10
  %call = call noundef ptr @_ZN6vectorIPN7grobner8equationELb0EjE5beginEv(ptr noundef nonnull align 8 dereferenceable(8) %m_equations_to_delete)
  store ptr %call, ptr %it, align 8
  %m_equations_to_delete2 = getelementptr inbounds %class.grobner, ptr %this1, i32 0, i32 10
  %call3 = call noundef ptr @_ZN6vectorIPN7grobner8equationELb0EjE3endEv(ptr noundef nonnull align 8 dereferenceable(8) %m_equations_to_delete2)
  store ptr %call3, ptr %end, align 8
  %0 = load i32, ptr %old_size.addr, align 4
  %1 = load ptr, ptr %it, align 8
  %idx.ext = zext i32 %0 to i64
  %add.ptr = getelementptr inbounds ptr, ptr %1, i64 %idx.ext
  store ptr %add.ptr, ptr %it, align 8
  br label %for.cond

for.cond:                                         ; preds = %for.inc, %entry
  %2 = load ptr, ptr %it, align 8
  %3 = load ptr, ptr %end, align 8
  %cmp = icmp ne ptr %2, %3
  br i1 %cmp, label %for.body, label %for.end

for.body:                                         ; preds = %for.cond
  %4 = load ptr, ptr %it, align 8
  %5 = load ptr, ptr %4, align 8
  store ptr %5, ptr %eq, align 8
  %6 = load ptr, ptr %eq, align 8
  %tobool = icmp ne ptr %6, null
  br i1 %tobool, label %if.then, label %if.end

if.then:                                          ; preds = %for.body
  %7 = load ptr, ptr %eq, align 8
  call void @_ZN7grobner12del_equationEPNS_8equationE(ptr noundef nonnull align 8 dereferenceable(228) %this1, ptr noundef %7)
  br label %if.end

if.end:                                           ; preds = %if.then, %for.body
  br label %for.inc

for.inc:                                          ; preds = %if.end
  %8 = load ptr, ptr %it, align 8
  %incdec.ptr = getelementptr inbounds ptr, ptr %8, i32 1
  store ptr %incdec.ptr, ptr %it, align 8
  br label %for.cond, !llvm.loop !6

for.end:                                          ; preds = %for.cond
  %m_equations_to_delete4 = getelementptr inbounds %class.grobner, ptr %this1, i32 0, i32 10
  %9 = load i32, ptr %old_size.addr, align 4
  call void @_ZN6vectorIPN7grobner8equationELb0EjE6shrinkEj(ptr noundef nonnull align 8 dereferenceable(8) %m_equations_to_delete4, i32 noundef %9)
  ret void
}

; Function Attrs: mustprogress uwtable
define hidden void @_ZN7grobner18unfreeze_equationsEj(ptr noundef nonnull align 8 dereferenceable(228) %this, i32 noundef %old_size) #4 align 2 {
entry:
  %this.addr = alloca ptr, align 8
  %old_size.addr = alloca i32, align 4
  %it = alloca ptr, align 8
  %end = alloca ptr, align 8
  %eq = alloca ptr, align 8
  store ptr %this, ptr %this.addr, align 8
  store i32 %old_size, ptr %old_size.addr, align 4
  %this1 = load ptr, ptr %this.addr, align 8
  %m_equations_to_unfreeze = getelementptr inbounds %class.grobner, ptr %this1, i32 0, i32 9
  %call = call noundef ptr @_ZN6vectorIPN7grobner8equationELb0EjE5beginEv(ptr noundef nonnull align 8 dereferenceable(8) %m_equations_to_unfreeze)
  store ptr %call, ptr %it, align 8
  %m_equations_to_unfreeze2 = getelementptr inbounds %class.grobner, ptr %this1, i32 0, i32 9
  %call3 = call noundef ptr @_ZN6vectorIPN7grobner8equationELb0EjE3endEv(ptr noundef nonnull align 8 dereferenceable(8) %m_equations_to_unfreeze2)
  store ptr %call3, ptr %end, align 8
  %0 = load i32, ptr %old_size.addr, align 4
  %1 = load ptr, ptr %it, align 8
  %idx.ext = zext i32 %0 to i64
  %add.ptr = getelementptr inbounds ptr, ptr %1, i64 %idx.ext
  store ptr %add.ptr, ptr %it, align 8
  br label %for.cond

for.cond:                                         ; preds = %for.inc, %entry
  %2 = load ptr, ptr %it, align 8
  %3 = load ptr, ptr %end, align 8
  %cmp = icmp ne ptr %2, %3
  br i1 %cmp, label %for.body, label %for.end

for.body:                                         ; preds = %for.cond
  %4 = load ptr, ptr %it, align 8
  %5 = load ptr, ptr %4, align 8
  store ptr %5, ptr %eq, align 8
  %m_to_process = getelementptr inbounds %class.grobner, ptr %this1, i32 0, i32 8
  call void @_ZN14core_hashtableI14obj_hash_entryIN7grobner8equationEE12obj_ptr_hashIS2_E6ptr_eqIS2_EE6insertERKPS2_(ptr noundef nonnull align 8 dereferenceable(20) %m_to_process, ptr noundef nonnull align 8 dereferenceable(8) %eq)
  br label %for.inc

for.inc:                                          ; preds = %for.body
  %6 = load ptr, ptr %it, align 8
  %incdec.ptr = getelementptr inbounds ptr, ptr %6, i32 1
  store ptr %incdec.ptr, ptr %it, align 8
  br label %for.cond, !llvm.loop !7

for.end:                                          ; preds = %for.cond
  %m_equations_to_unfreeze4 = getelementptr inbounds %class.grobner, ptr %this1, i32 0, i32 9
  %7 = load i32, ptr %old_size.addr, align 4
  call void @_ZN6vectorIPN7grobner8equationELb0EjE6shrinkEj(ptr noundef nonnull align 8 dereferenceable(8) %m_equations_to_unfreeze4, i32 noundef %7)
  ret void
}

; Function Attrs: mustprogress nounwind uwtable
define linkonce_odr hidden noundef nonnull align 4 dereferenceable(8) ptr @_ZN6vectorIN7grobner5scopeELb0EjEixEj(ptr noundef nonnull align 8 dereferenceable(8) %this, i32 noundef %idx) #5 comdat align 2 {
entry:
  %this.addr = alloca ptr, align 8
  %idx.addr = alloca i32, align 4
  store ptr %this, ptr %this.addr, align 8
  store i32 %idx, ptr %idx.addr, align 4
  %this1 = load ptr, ptr %this.addr, align 8
  %m_data = getelementptr inbounds %class.vector.2, ptr %this1, i32 0, i32 0
  %0 = load ptr, ptr %m_data, align 8
  %1 = load i32, ptr %idx.addr, align 4
  %idxprom = zext i32 %1 to i64
  %arrayidx = getelementptr inbounds %"struct.grobner::scope", ptr %0, i64 %idxprom
  ret ptr %arrayidx
}

; Function Attrs: mustprogress uwtable
define linkonce_odr hidden noundef i32 @_ZNK7grobner15get_scope_levelEv(ptr noundef nonnull align 8 dereferenceable(228) %this) #4 comdat align 2 {
entry:
  %this.addr = alloca ptr, align 8
  store ptr %this, ptr %this.addr, align 8
  %this1 = load ptr, ptr %this.addr, align 8
  %m_scopes = getelementptr inbounds %class.grobner, ptr %this1, i32 0, i32 14
  %call = call noundef i32 @_ZNK6vectorIN7grobner5scopeELb0EjE4sizeEv(ptr noundef nonnull align 8 dereferenceable(8) %m_scopes)
  ret i32 %call
}

; Function Attrs: mustprogress uwtable
define hidden void @_ZN7grobner9pop_scopeEj(ptr noundef nonnull align 8 dereferenceable(228) %this, i32 noundef %num_scopes) #4 align 2 {
entry:
  %this.addr = alloca ptr, align 8
  %num_scopes.addr = alloca i32, align 4
  %new_lvl = alloca i32, align 4
  %s = alloca ptr, align 8
  store ptr %this, ptr %this.addr, align 8
  store i32 %num_scopes, ptr %num_scopes.addr, align 4
  %this1 = load ptr, ptr %this.addr, align 8
  %call = call noundef i32 @_ZNK7grobner15get_scope_levelEv(ptr noundef nonnull align 8 dereferenceable(228) %this1)
  %0 = load i32, ptr %num_scopes.addr, align 4
  %sub = sub i32 %call, %0
  store i32 %sub, ptr %new_lvl, align 4
  %m_scopes = getelementptr inbounds %class.grobner, ptr %this1, i32 0, i32 14
  %1 = load i32, ptr %new_lvl, align 4
  %call2 = call noundef nonnull align 4 dereferenceable(8) ptr @_ZN6vectorIN7grobner5scopeELb0EjEixEj(ptr noundef nonnull align 8 dereferenceable(8) %m_scopes, i32 noundef %1)
  store ptr %call2, ptr %s, align 8
  %2 = load ptr, ptr %s, align 8
  %m_equations_to_unfreeze_lim = getelementptr inbounds %"struct.grobner::scope", ptr %2, i32 0, i32 0
  %3 = load i32, ptr %m_equations_to_unfreeze_lim, align 4
  call void @_ZN7grobner18unfreeze_equationsEj(ptr noundef nonnull align 8 dereferenceable(228) %this1, i32 noundef %3)
  %4 = load ptr, ptr %s, align 8
  %m_equations_to_delete_lim = getelementptr inbounds %"struct.grobner::scope", ptr %4, i32 0, i32 1
  %5 = load i32, ptr %m_equations_to_delete_lim, align 4
  call void @_ZN7grobner13del_equationsEj(ptr noundef nonnull align 8 dereferenceable(228) %this1, i32 noundef %5)
  %m_scopes3 = getelementptr inbounds %class.grobner, ptr %this1, i32 0, i32 14
  %6 = load i32, ptr %new_lvl, align 4
  call void @_ZN6vectorIN7grobner5scopeELb0EjE6shrinkEj(ptr noundef nonnull align 8 dereferenceable(8) %m_scopes3, i32 noundef %6)
  ret void
}