; Function Attrs: mustprogress uwtable
define hidden void @_ZN7grobner9pop_scopeEj(ptr noundef nonnull align 8 dereferenceable(228) %this, i32 noundef %num_scopes) local_unnamed_addr #3 align 2 {
entry:
  %tmp.i.i = alloca ptr, align 8
  %m_scopes.i = getelementptr inbounds i8, ptr %this, i64 184
  %0 = load ptr, ptr %m_scopes.i, align 8
  %cmp.i.i = icmp eq ptr %0, null
  br i1 %cmp.i.i, label %_ZNK7grobner15get_scope_levelEv.exit, label %if.end.i.i

if.end.i.i:                                       ; preds = %entry
  %arrayidx.i.i = getelementptr inbounds i8, ptr %0, i64 -4
  %1 = load i32, ptr %arrayidx.i.i, align 4
  br label %_ZNK7grobner15get_scope_levelEv.exit

_ZNK7grobner15get_scope_levelEv.exit:             ; preds = %entry, %if.end.i.i
  %retval.0.i.i = phi i32 [ %1, %if.end.i.i ], [ 0, %entry ]
  %sub = sub i32 %retval.0.i.i, %num_scopes
  %idxprom.i = zext i32 %sub to i64
  %arrayidx.i = getelementptr inbounds %"struct.grobner::scope", ptr %0, i64 %idxprom.i
  %2 = load i32, ptr %arrayidx.i, align 4
  %m_equations_to_unfreeze.i = getelementptr inbounds i8, ptr %this, i64 152
  %3 = load ptr, ptr %m_equations_to_unfreeze.i, align 8
  %cmp.i.i.i = icmp eq ptr %3, null
  br i1 %cmp.i.i.i, label %_ZN6vectorIPN7grobner8equationELb0EjE3endEv.exit.i, label %if.end.i.i.i

if.end.i.i.i:                                     ; preds = %_ZNK7grobner15get_scope_levelEv.exit
  %arrayidx.i.i.i = getelementptr inbounds i8, ptr %3, i64 -4
  %4 = load i32, ptr %arrayidx.i.i.i, align 4
  %5 = zext i32 %4 to i64
  br label %_ZN6vectorIPN7grobner8equationELb0EjE3endEv.exit.i

_ZN6vectorIPN7grobner8equationELb0EjE3endEv.exit.i: ; preds = %if.end.i.i.i, %_ZNK7grobner15get_scope_levelEv.exit
  %retval.0.i.i.i = phi i64 [ %5, %if.end.i.i.i ], [ 0, %_ZNK7grobner15get_scope_levelEv.exit ]
  %add.ptr.i.i = getelementptr inbounds ptr, ptr %3, i64 %retval.0.i.i.i
  %idx.ext.i = zext i32 %2 to i64
  %cmp.not5.i = icmp eq i64 %retval.0.i.i.i, %idx.ext.i
  br i1 %cmp.not5.i, label %for.end.i, label %for.body.lr.ph.i

for.body.lr.ph.i:                                 ; preds = %_ZN6vectorIPN7grobner8equationELb0EjE3endEv.exit.i
  %add.ptr.i = getelementptr inbounds ptr, ptr %3, i64 %idx.ext.i
  %m_to_process.i = getelementptr inbounds i8, ptr %this, i64 128
  br label %for.body.i

for.body.i:                                       ; preds = %for.body.i, %for.body.lr.ph.i
  %it.06.i = phi ptr [ %add.ptr.i, %for.body.lr.ph.i ], [ %incdec.ptr.i, %for.body.i ]
  %6 = load ptr, ptr %it.06.i, align 8
  call void @llvm.lifetime.start.p0(i64 8, ptr nonnull %tmp.i.i)
  store ptr %6, ptr %tmp.i.i, align 8
  call void @_ZN14core_hashtableI14obj_hash_entryIN7grobner8equationEE12obj_ptr_hashIS2_E6ptr_eqIS2_EE6insertEOPS2_(ptr noundef nonnull align 8 dereferenceable(20) %m_to_process.i, ptr noundef nonnull align 8 dereferenceable(8) %tmp.i.i)
  call void @llvm.lifetime.end.p0(i64 8, ptr nonnull %tmp.i.i)
  %incdec.ptr.i = getelementptr inbounds i8, ptr %it.06.i, i64 8
  %cmp.not.i = icmp eq ptr %incdec.ptr.i, %add.ptr.i.i
  br i1 %cmp.not.i, label %for.end.loopexit.i, label %for.body.i, !llvm.loop !9

for.end.loopexit.i:                               ; preds = %for.body.i
  %.pre.i = load ptr, ptr %m_equations_to_unfreeze.i, align 8
  br label %for.end.i

for.end.i:                                        ; preds = %for.end.loopexit.i, %_ZN6vectorIPN7grobner8equationELb0EjE3endEv.exit.i
  %7 = phi ptr [ %.pre.i, %for.end.loopexit.i ], [ %3, %_ZN6vectorIPN7grobner8equationELb0EjE3endEv.exit.i ]
  %tobool.not.i.i = icmp eq ptr %7, null
  br i1 %tobool.not.i.i, label %_ZN7grobner18unfreeze_equationsEj.exit, label %if.then.i.i

if.then.i.i:                                      ; preds = %for.end.i
  %arrayidx.i.i3 = getelementptr inbounds i8, ptr %7, i64 -4
  store i32 %2, ptr %arrayidx.i.i3, align 4
  br label %_ZN7grobner18unfreeze_equationsEj.exit

_ZN7grobner18unfreeze_equationsEj.exit:           ; preds = %for.end.i, %if.then.i.i
  %m_equations_to_delete_lim = getelementptr inbounds i8, ptr %arrayidx.i, i64 4
  %8 = load i32, ptr %m_equations_to_delete_lim, align 4
  %m_equations_to_delete.i = getelementptr inbounds i8, ptr %this, i64 160
  %9 = load ptr, ptr %m_equations_to_delete.i, align 8
  %cmp.i.i.i4 = icmp eq ptr %9, null
  br i1 %cmp.i.i.i4, label %_ZN6vectorIPN7grobner8equationELb0EjE3endEv.exit.i7, label %if.end.i.i.i5

if.end.i.i.i5:                                    ; preds = %_ZN7grobner18unfreeze_equationsEj.exit
  %arrayidx.i.i.i6 = getelementptr inbounds i8, ptr %9, i64 -4
  %10 = load i32, ptr %arrayidx.i.i.i6, align 4
  %11 = zext i32 %10 to i64
  br label %_ZN6vectorIPN7grobner8equationELb0EjE3endEv.exit.i7

_ZN6vectorIPN7grobner8equationELb0EjE3endEv.exit.i7: ; preds = %if.end.i.i.i5, %_ZN7grobner18unfreeze_equationsEj.exit
  %retval.0.i.i.i8 = phi i64 [ %11, %if.end.i.i.i5 ], [ 0, %_ZN7grobner18unfreeze_equationsEj.exit ]
  %add.ptr.i.i9 = getelementptr inbounds ptr, ptr %9, i64 %retval.0.i.i.i8
  %idx.ext.i10 = zext i32 %8 to i64
  %cmp.not6.i = icmp eq i64 %retval.0.i.i.i8, %idx.ext.i10
  br i1 %cmp.not6.i, label %for.end.i17, label %for.body.preheader.i

for.body.preheader.i:                             ; preds = %_ZN6vectorIPN7grobner8equationELb0EjE3endEv.exit.i7
  %add.ptr.i11 = getelementptr inbounds ptr, ptr %9, i64 %idx.ext.i10
  br label %for.body.i12

for.body.i12:                                     ; preds = %for.inc.i, %for.body.preheader.i
  %it.07.i = phi ptr [ %incdec.ptr.i13, %for.inc.i ], [ %add.ptr.i11, %for.body.preheader.i ]
  %12 = load ptr, ptr %it.07.i, align 8
  %tobool.not.i = icmp eq ptr %12, null
  br i1 %tobool.not.i, label %for.inc.i, label %if.then.i

if.then.i:                                        ; preds = %for.body.i12
  call void @_ZN7grobner12del_equationEPNS_8equationE(ptr noundef nonnull align 8 dereferenceable(228) %this, ptr noundef nonnull %12)
  br label %for.inc.i

for.inc.i:                                        ; preds = %if.then.i, %for.body.i12
  %incdec.ptr.i13 = getelementptr inbounds i8, ptr %it.07.i, i64 8
  %cmp.not.i14 = icmp eq ptr %incdec.ptr.i13, %add.ptr.i.i9
  br i1 %cmp.not.i14, label %for.end.loopexit.i15, label %for.body.i12, !llvm.loop !4

for.end.loopexit.i15:                             ; preds = %for.inc.i
  %.pre.i16 = load ptr, ptr %m_equations_to_delete.i, align 8
  br label %for.end.i17

for.end.i17:                                      ; preds = %for.end.loopexit.i15, %_ZN6vectorIPN7grobner8equationELb0EjE3endEv.exit.i7
  %13 = phi ptr [ %.pre.i16, %for.end.loopexit.i15 ], [ %9, %_ZN6vectorIPN7grobner8equationELb0EjE3endEv.exit.i7 ]
  %tobool.not.i.i18 = icmp eq ptr %13, null
  br i1 %tobool.not.i.i18, label %_ZN7grobner13del_equationsEj.exit, label %if.then.i.i19

if.then.i.i19:                                    ; preds = %for.end.i17
  %arrayidx.i.i20 = getelementptr inbounds i8, ptr %13, i64 -4
  store i32 %8, ptr %arrayidx.i.i20, align 4
  br label %_ZN7grobner13del_equationsEj.exit

_ZN7grobner13del_equationsEj.exit:                ; preds = %for.end.i17, %if.then.i.i19
  %14 = load ptr, ptr %m_scopes.i, align 8
  %tobool.not.i21 = icmp eq ptr %14, null
  br i1 %tobool.not.i21, label %_ZN6vectorIN7grobner5scopeELb0EjE6shrinkEj.exit, label %if.then.i22

if.then.i22:                                      ; preds = %_ZN7grobner13del_equationsEj.exit
  %arrayidx.i23 = getelementptr inbounds i8, ptr %14, i64 -4
  store i32 %sub, ptr %arrayidx.i23, align 4
  br label %_ZN6vectorIN7grobner5scopeELb0EjE6shrinkEj.exit

_ZN6vectorIN7grobner5scopeELb0EjE6shrinkEj.exit:  ; preds = %_ZN7grobner13del_equationsEj.exit, %if.then.i22
  ret void
}